target datalayout = "e-m:e-p270:32:32-p271:32:32-p272:64:64-i64:64-i128:128-f80:128-n8:16:32:64-S128"
target triple = "x86_64-pc-linux-gnu"

%struct.tm = type { i32, i32, i32, i32, i32, i32, i32, i32, i32, i64, ptr }

; Function Attrs: nounwind uwtable
define i32 @DecodeTime(ptr noundef %0, ptr noundef %1, ptr noundef %2, ptr noundef %3) #0 {
  %5 = alloca i32, align 4
  %6 = alloca ptr, align 8
  %7 = alloca ptr, align 8
  %8 = alloca ptr, align 8
  %9 = alloca ptr, align 8
  %10 = alloca ptr, align 8
  %11 = alloca i32, align 4
  %12 = alloca [7 x i8], align 1
  %13 = alloca i32, align 4
  store ptr %0, ptr %6, align 8
  store ptr %1, ptr %7, align 8
  store ptr %2, ptr %8, align 8
  store ptr %3, ptr %9, align 8
  call void @llvm.lifetime.start.p0(i64 8, ptr %10) #9
  %14 = load ptr, ptr %7, align 8
  store i32 7168, ptr %14, align 4
  %15 = load ptr, ptr %6, align 8
  %16 = call i32 @strtoint(ptr noundef %15, ptr noundef %10, i32 noundef 10)
  %17 = load ptr, ptr %8, align 8
  %18 = getelementptr inbounds nuw %struct.tm, ptr %17, i32 0, i32 2
  store i32 %16, ptr %18, align 8
  %19 = load ptr, ptr %10, align 8
  %20 = load i8, ptr %19, align 1
  %21 = sext i8 %20 to i32
  %22 = icmp ne i32 %21, 58
  br i1 %22, label %23, label %24

23:                                               ; preds = %4
  store i32 -1, ptr %5, align 4
  store i32 1, ptr %11, align 4
  br label %141

24:                                               ; preds = %4
  %25 = load ptr, ptr %10, align 8
  %26 = getelementptr inbounds i8, ptr %25, i64 1
  store ptr %26, ptr %6, align 8
  %27 = load ptr, ptr %6, align 8
  %28 = call i32 @strtoint(ptr noundef %27, ptr noundef %10, i32 noundef 10)
  %29 = load ptr, ptr %8, align 8
  %30 = getelementptr inbounds nuw %struct.tm, ptr %29, i32 0, i32 1
  store i32 %28, ptr %30, align 4
  %31 = load ptr, ptr %10, align 8
  %32 = load i8, ptr %31, align 1
  %33 = sext i8 %32 to i32
  %34 = icmp eq i32 %33, 0
  br i1 %34, label %35, label %39

35:                                               ; preds = %24
  %36 = load ptr, ptr %8, align 8
  %37 = getelementptr inbounds nuw %struct.tm, ptr %36, i32 0, i32 0
  store i32 0, ptr %37, align 8
  %38 = load ptr, ptr %9, align 8
  store i32 0, ptr %38, align 4
  br label %109

39:                                               ; preds = %24
  %40 = load ptr, ptr %10, align 8
  %41 = load i8, ptr %40, align 1
  %42 = sext i8 %41 to i32
  %43 = icmp ne i32 %42, 58
  br i1 %43, label %44, label %45

44:                                               ; preds = %39
  store i32 -1, ptr %5, align 4
  store i32 1, ptr %11, align 4
  br label %141

45:                                               ; preds = %39
  %46 = load ptr, ptr %10, align 8
  %47 = getelementptr inbounds i8, ptr %46, i64 1
  store ptr %47, ptr %6, align 8
  %48 = load ptr, ptr %6, align 8
  %49 = call i32 @strtoint(ptr noundef %48, ptr noundef %10, i32 noundef 10)
  %50 = load ptr, ptr %8, align 8
  %51 = getelementptr inbounds nuw %struct.tm, ptr %50, i32 0, i32 0
  store i32 %49, ptr %51, align 8
  %52 = load ptr, ptr %10, align 8
  %53 = load i8, ptr %52, align 1
  %54 = sext i8 %53 to i32
  %55 = icmp eq i32 %54, 0
  br i1 %55, label %56, label %58

56:                                               ; preds = %45
  %57 = load ptr, ptr %9, align 8
  store i32 0, ptr %57, align 4
  br label %107

58:                                               ; preds = %45
  %59 = load ptr, ptr %10, align 8
  %60 = load i8, ptr %59, align 1
  %61 = sext i8 %60 to i32
  %62 = icmp eq i32 %61, 46
  br i1 %62, label %63, label %105

63:                                               ; preds = %58
  call void @llvm.lifetime.start.p0(i64 7, ptr %12) #9
  call void @llvm.lifetime.start.p0(i64 4, ptr %13) #9
  %64 = load ptr, ptr %10, align 8
  %65 = getelementptr inbounds nuw i8, ptr %64, i32 1
  store ptr %65, ptr %10, align 8
  store i32 0, ptr %13, align 4
  br label %66

66:                                               ; preds = %86, %63
  %67 = load i32, ptr %13, align 4
  %68 = icmp slt i32 %67, 6
  br i1 %68, label %69, label %89

69:                                               ; preds = %66
  %70 = load ptr, ptr %10, align 8
  %71 = load i8, ptr %70, align 1
  %72 = sext i8 %71 to i32
  %73 = icmp ne i32 %72, 0
  br i1 %73, label %74, label %79

74:                                               ; preds = %69
  %75 = load ptr, ptr %10, align 8
  %76 = getelementptr inbounds nuw i8, ptr %75, i32 1
  store ptr %76, ptr %10, align 8
  %77 = load i8, ptr %75, align 1
  %78 = sext i8 %77 to i32
  br label %80

79:                                               ; preds = %69
  br label %80

80:                                               ; preds = %79, %74
  %81 = phi i32 [ %78, %74 ], [ 48, %79 ]
  %82 = trunc i32 %81 to i8
  %83 = load i32, ptr %13, align 4
  %84 = sext i32 %83 to i64
  %85 = getelementptr inbounds [7 x i8], ptr %12, i64 0, i64 %84
  store i8 %82, ptr %85, align 1
  br label %86

86:                                               ; preds = %80
  %87 = load i32, ptr %13, align 4
  %88 = add i32 %87, 1
  store i32 %88, ptr %13, align 4
  br label %66, !llvm.loop !8

89:                                               ; preds = %66
  %90 = load i32, ptr %13, align 4
  %91 = sext i32 %90 to i64
  %92 = getelementptr inbounds [7 x i8], ptr %12, i64 0, i64 %91
  store i8 0, ptr %92, align 1
  %93 = getelementptr inbounds [7 x i8], ptr %12, i64 0, i64 0
  %94 = call i32 @strtoint(ptr noundef %93, ptr noundef %10, i32 noundef 10)
  %95 = load ptr, ptr %9, align 8
  store i32 %94, ptr %95, align 4
  %96 = load ptr, ptr %10, align 8
  %97 = load i8, ptr %96, align 1
  %98 = sext i8 %97 to i32
  %99 = icmp ne i32 %98, 0
  br i1 %99, label %100, label %101

100:                                              ; preds = %89
  store i32 -1, ptr %5, align 4
  store i32 1, ptr %11, align 4
  br label %102

101:                                              ; preds = %89
  store i32 0, ptr %11, align 4
  br label %102

102:                                              ; preds = %101, %100
  call void @llvm.lifetime.end.p0(i64 4, ptr %13) #9
  call void @llvm.lifetime.end.p0(i64 7, ptr %12) #9
  %103 = load i32, ptr %11, align 4
  switch i32 %103, label %141 [
    i32 0, label %104
  ]

104:                                              ; preds = %102
  br label %106

105:                                              ; preds = %58
  store i32 -1, ptr %5, align 4
  store i32 1, ptr %11, align 4
  br label %141

106:                                              ; preds = %104
  br label %107

107:                                              ; preds = %106, %56
  br label %108

108:                                              ; preds = %107
  br label %109

109:                                              ; preds = %108, %35
  %110 = load ptr, ptr %8, align 8
  %111 = getelementptr inbounds nuw %struct.tm, ptr %110, i32 0, i32 2
  %112 = load i32, ptr %111, align 8
  %113 = icmp slt i32 %112, 0
  br i1 %113, label %139, label %114

114:                                              ; preds = %109
  %115 = load ptr, ptr %8, align 8
  %116 = getelementptr inbounds nuw %struct.tm, ptr %115, i32 0, i32 1
  %117 = load i32, ptr %116, align 4
  %118 = icmp slt i32 %117, 0
  br i1 %118, label %139, label %119

119:                                              ; preds = %114
  %120 = load ptr, ptr %8, align 8
  %121 = getelementptr inbounds nuw %struct.tm, ptr %120, i32 0, i32 1
  %122 = load i32, ptr %121, align 4
  %123 = icmp sgt i32 %122, 59
  br i1 %123, label %139, label %124

124:                                              ; preds = %119
  %125 = load ptr, ptr %8, align 8
  %126 = getelementptr inbounds nuw %struct.tm, ptr %125, i32 0, i32 0
  %127 = load i32, ptr %126, align 8
  %128 = icmp slt i32 %127, 0
  br i1 %128, label %139, label %129

129:                                              ; preds = %124
  %130 = load ptr, ptr %8, align 8
  %131 = getelementptr inbounds nuw %struct.tm, ptr %130, i32 0, i32 0
  %132 = load i32, ptr %131, align 8
  %133 = icmp sgt i32 %132, 59
  br i1 %133, label %139, label %134

134:                                              ; preds = %129
  %135 = load ptr, ptr %9, align 8
  %136 = load i32, ptr %135, align 4
  %137 = sext i32 %136 to i64
  %138 = icmp sge i64 %137, 1000000
  br i1 %138, label %139, label %140

139:                                              ; preds = %134, %129, %124, %119, %114, %109
  store i32 -1, ptr %5, align 4
  store i32 1, ptr %11, align 4
  br label %141

140:                                              ; preds = %134
  store i32 0, ptr %5, align 4
  store i32 1, ptr %11, align 4
  br label %141

141:                                              ; preds = %140, %139, %105, %102, %44, %23
  call void @llvm.lifetime.end.p0(i64 8, ptr %10) #9
  %142 = load i32, ptr %5, align 4
  ret i32 %142
}