; Function Attrs: nounwind uwtable
define range(i32 -1, 1) i32 @DecodeTime(ptr noundef %0, ptr noundef writeonly captures(none) initializes((0, 4)) %1, ptr noundef captures(none) initializes((8, 12)) %2, ptr noundef writeonly captures(none) %3) local_unnamed_addr #5 {
  %5 = alloca ptr, align 8
  %6 = alloca [7 x i8], align 1
  call void @llvm.lifetime.start.p0(i64 8, ptr nonnull %5) #17
  store i32 7168, ptr %1, align 4
  %7 = call i32 @strtoint(ptr noundef %0, ptr noundef nonnull %5, i32 noundef 10) #17
  %8 = getelementptr inbounds nuw i8, ptr %2, i64 8
  store i32 %7, ptr %8, align 8
  %9 = load ptr, ptr %5, align 8
  %10 = load i8, ptr %9, align 1
  %.not = icmp eq i8 %10, 58
  br i1 %.not, label %11, label %50

11:                                               ; preds = %4
  %12 = getelementptr inbounds nuw i8, ptr %9, i64 1
  %13 = call i32 @strtoint(ptr noundef nonnull %12, ptr noundef nonnull %5, i32 noundef 10) #17
  %14 = getelementptr inbounds nuw i8, ptr %2, i64 4
  store i32 %13, ptr %14, align 4
  %15 = load ptr, ptr %5, align 8
  %16 = load i8, ptr %15, align 1
  switch i8 %16, label %50 [
    i8 0, label %17
    i8 58, label %18
  ]

17:                                               ; preds = %11
  store i32 0, ptr %2, align 8
  br label %.sink.split

18:                                               ; preds = %11
  %19 = getelementptr inbounds nuw i8, ptr %15, i64 1
  %20 = call i32 @strtoint(ptr noundef nonnull %19, ptr noundef nonnull %5, i32 noundef 10) #17
  store i32 %20, ptr %2, align 8
  %21 = load ptr, ptr %5, align 8
  %22 = load i8, ptr %21, align 1
  switch i8 %22, label %50 [
    i8 0, label %.sink.split
    i8 46, label %23
  ]

23:                                               ; preds = %18
  call void @llvm.lifetime.start.p0(i64 7, ptr nonnull %6) #17
  %24 = getelementptr inbounds nuw i8, ptr %21, i64 1
  store ptr %24, ptr %5, align 8
  br label %25

25:                                               ; preds = %23, %31
  %indvars.iv = phi i64 [ 0, %23 ], [ %indvars.iv.next, %31 ]
  %26 = phi ptr [ %24, %23 ], [ %32, %31 ]
  %27 = load i8, ptr %26, align 1
  %.not30 = icmp eq i8 %27, 0
  br i1 %.not30, label %31, label %28

28:                                               ; preds = %25
  %29 = getelementptr inbounds nuw i8, ptr %26, i64 1
  store ptr %29, ptr %5, align 8
  %30 = load i8, ptr %26, align 1
  br label %31

31:                                               ; preds = %25, %28
  %32 = phi ptr [ %29, %28 ], [ %26, %25 ]
  %33 = phi i8 [ %30, %28 ], [ 48, %25 ]
  %34 = getelementptr inbounds nuw [7 x i8], ptr %6, i64 0, i64 %indvars.iv
  store i8 %33, ptr %34, align 1
  %indvars.iv.next = add nuw nsw i64 %indvars.iv, 1
  %exitcond.not = icmp eq i64 %indvars.iv.next, 6
  br i1 %exitcond.not, label %35, label %25, !llvm.loop !6

35:                                               ; preds = %31
  %36 = getelementptr inbounds nuw i8, ptr %6, i64 6
  store i8 0, ptr %36, align 1
  %37 = call i32 @strtoint(ptr noundef nonnull %6, ptr noundef nonnull %5, i32 noundef 10) #17
  store i32 %37, ptr %3, align 4
  %38 = load ptr, ptr %5, align 8
  %39 = load i8, ptr %38, align 1
  %.not29 = icmp eq i8 %39, 0
  call void @llvm.lifetime.end.p0(i64 7, ptr nonnull %6) #17
  br i1 %.not29, label %40, label %50

.sink.split:                                      ; preds = %18, %17
  store i32 0, ptr %3, align 4
  br label %40

40:                                               ; preds = %.sink.split, %35
  %41 = phi i32 [ %37, %35 ], [ 0, %.sink.split ]
  %42 = load i32, ptr %8, align 8
  %43 = icmp slt i32 %42, 0
  br i1 %43, label %50, label %44

44:                                               ; preds = %40
  %45 = load i32, ptr %14, align 4
  %or.cond = icmp ugt i32 %45, 59
  br i1 %or.cond, label %50, label %46

46:                                               ; preds = %44
  %47 = load i32, ptr %2, align 8
  %or.cond31 = icmp ugt i32 %47, 59
  br i1 %or.cond31, label %50, label %48

48:                                               ; preds = %46
  %49 = icmp sgt i32 %41, 999999
  %spec.select = sext i1 %49 to i32
  br label %50

50:                                               ; preds = %48, %40, %44, %46, %18, %11, %4, %35
  %.023 = phi i32 [ -1, %35 ], [ -1, %4 ], [ -1, %11 ], [ -1, %18 ], [ -1, %46 ], [ -1, %44 ], [ -1, %40 ], [ %spec.select, %48 ]
  call void @llvm.lifetime.end.p0(i64 8, ptr nonnull %5) #17
  ret i32 %.023
}